target datalayout = "e-m:e-p270:32:32-p271:32:32-p272:64:64-i64:64-i128:128-f80:128-n8:16:32:64-S128"
target triple = "x86_64-pc-linux-gnu"

%struct.H5O_link_t = type { i32, i8, i64, i32, ptr, %union.anon }
%union.anon = type { %struct.H5O_link_ud_t }
%struct.H5O_link_ud_t = type { ptr, i64 }

@H5G_init_g = external global i8, align 1
@H5_libterm_g = external global i8, align 1

; Function Attrs: nounwind uwtable
define internal i32 @H5G__link_cmp_corder_dec(ptr noundef %0, ptr noundef %1) #0 {
  %3 = alloca ptr, align 8
  %4 = alloca ptr, align 8
  %5 = alloca i32, align 4
  store ptr %0, ptr %3, align 8, !tbaa !10
  store ptr %1, ptr %4, align 8, !tbaa !10
  call void @llvm.lifetime.start.p0(i64 4, ptr %5) #6
  store i32 -1, ptr %5, align 4, !tbaa !11
  %6 = load i8, ptr @H5G_init_g, align 1, !tbaa !13, !range !15, !noundef !16
  %7 = trunc i8 %6 to i1
  br i1 %7, label %12, label %8

8:                                                ; preds = %2
  %9 = load i8, ptr @H5_libterm_g, align 1, !tbaa !13, !range !15, !noundef !16
  %10 = trunc i8 %9 to i1
  %11 = xor i1 %10, true
  br label %12

12:                                               ; preds = %8, %2
  %13 = phi i1 [ true, %2 ], [ %11, %8 ]
  %14 = xor i1 %13, true
  %15 = xor i1 %14, true
  %16 = zext i1 %15 to i32
  %17 = sext i32 %16 to i64
  %18 = call i64 @llvm.expect.i64(i64 %17, i64 1)
  %19 = icmp ne i64 %18, 0
  br i1 %19, label %20, label %41

20:                                               ; preds = %12
  %21 = load ptr, ptr %3, align 8, !tbaa !10
  %22 = getelementptr inbounds nuw %struct.H5O_link_t, ptr %21, i32 0, i32 2
  %23 = load i64, ptr %22, align 8, !tbaa !24
  %24 = load ptr, ptr %4, align 8, !tbaa !10
  %25 = getelementptr inbounds nuw %struct.H5O_link_t, ptr %24, i32 0, i32 2
  %26 = load i64, ptr %25, align 8, !tbaa !24
  %27 = icmp slt i64 %23, %26
  br i1 %27, label %28, label %29

28:                                               ; preds = %20
  store i32 1, ptr %5, align 4, !tbaa !11
  br label %40

29:                                               ; preds = %20
  %30 = load ptr, ptr %3, align 8, !tbaa !10
  %31 = getelementptr inbounds nuw %struct.H5O_link_t, ptr %30, i32 0, i32 2
  %32 = load i64, ptr %31, align 8, !tbaa !24
  %33 = load ptr, ptr %4, align 8, !tbaa !10
  %34 = getelementptr inbounds nuw %struct.H5O_link_t, ptr %33, i32 0, i32 2
  %35 = load i64, ptr %34, align 8, !tbaa !24
  %36 = icmp sgt i64 %32, %35
  br i1 %36, label %37, label %38

37:                                               ; preds = %29
  store i32 -1, ptr %5, align 4, !tbaa !11
  br label %39

38:                                               ; preds = %29
  store i32 0, ptr %5, align 4, !tbaa !11
  br label %39

39:                                               ; preds = %38, %37
  br label %40

40:                                               ; preds = %39, %28
  br label %41

41:                                               ; preds = %40, %12
  %42 = load i32, ptr %5, align 4, !tbaa !11
  call void @llvm.lifetime.end.p0(i64 4, ptr %5) #6
  ret i32 %42
}