; Function Attrs: mustprogress nofree norecurse nosync nounwind willreturn memory(read, inaccessiblemem: none) uwtable
define internal range(i32 -1, 2) i32 @H5G__link_cmp_corder_dec(ptr noundef readonly captures(none) %0, ptr noundef readonly captures(none) %1) #8 {
  %3 = load i8, ptr @H5G_init_g, align 1, !tbaa !3, !range !7, !noundef !8
  %4 = trunc nuw i8 %3 to i1
  %5 = load i8, ptr @H5_libterm_g, align 1, !range !7
  %6 = trunc nuw i8 %5 to i1
  %7 = xor i1 %6, true
  %8 = select i1 %4, i1 true, i1 %7
  br i1 %8, label %9, label %17, !prof !9

9:                                                ; preds = %2
  %10 = getelementptr inbounds nuw i8, ptr %0, i64 8
  %11 = load i64, ptr %10, align 8, !tbaa !20
  %12 = getelementptr inbounds nuw i8, ptr %1, i64 8
  %13 = load i64, ptr %12, align 8, !tbaa !20
  %14 = icmp slt i64 %11, %13
  br i1 %14, label %17, label %15

15:                                               ; preds = %9
  %16 = icmp sgt i64 %11, %13
  %. = sext i1 %16 to i32
  br label %17

17:                                               ; preds = %15, %9, %2
  %.0 = phi i32 [ -1, %2 ], [ 1, %9 ], [ %., %15 ]
  ret i32 %.0
}